CCS PCM C Compiler, Version 4.018, 15888               07-Out-07 18:40

               Filename: C:\Projecto_Domotica\Pic\lixo\prob_pinA4.lst

               ROM used: 122 words (1%)
                         Largest free fragment is 2048
               RAM used: 8 (2%) at main() level
                         9 (2%) worst case
               Stack:    1 locations

*
0000:  MOVLW  00
0001:  MOVWF  0A
0002:  GOTO   018
0003:  NOP
.................... #include "C:\Projecto_Domotica\Pic\lixo\prob_pinA4.h" 
.................... #include <16F876A.h> 
.................... //////// Standard Header file for the PIC16F876A device //////////////// 
.................... #device PIC16F876A 
.................... #list 
....................  
.................... #device adc=8 
....................  
.................... #FUSES NOWDT                 	//No Watch Dog Timer 
.................... #FUSES HS                    	//High speed Osc (> 4mhz) 
.................... #FUSES NOPUT                 	//No Power Up Timer 
.................... #FUSES NOPROTECT             	//Code not protected from reading 
.................... #FUSES NODEBUG               	//No Debug mode for ICD 
.................... #FUSES BROWNOUT              	//Reset when brownout detected 
.................... #FUSES NOLVP                 	//No low voltage prgming, B3(PIC16) or B5(PIC18) used for I/O 
.................... #FUSES NOCPD                 	//No EE protection 
.................... #FUSES NOWRT                 	//Program memory not write protected 
....................  
.................... #use delay(clock=20000000) 
0004:  MOVLW  22
0005:  MOVWF  04
0006:  BCF    03.7
0007:  MOVF   00,W
0008:  BTFSC  03.2
0009:  GOTO   017
000A:  MOVLW  06
000B:  MOVWF  78
000C:  CLRF   77
000D:  DECFSZ 77,F
000E:  GOTO   00D
000F:  DECFSZ 78,F
0010:  GOTO   00C
0011:  MOVLW  7B
0012:  MOVWF  77
0013:  DECFSZ 77,F
0014:  GOTO   013
0015:  DECFSZ 00,F
0016:  GOTO   00A
0017:  RETLW  00
.................... #use rs232(baud=9600,parity=N,xmit=PIN_C6,rcv=PIN_C7,bits=8) 
....................  
....................  
....................  
....................  
.................... void main() 
.................... { 
0018:  CLRF   04
0019:  BCF    03.7
001A:  MOVLW  1F
001B:  ANDWF  03,F
001C:  MOVLW  81
001D:  BSF    03.5
001E:  MOVWF  19
001F:  MOVLW  A6
0020:  MOVWF  18
0021:  MOVLW  90
0022:  BCF    03.5
0023:  MOVWF  18
0024:  BSF    03.5
0025:  BSF    1F.0
0026:  BSF    1F.1
0027:  BSF    1F.2
0028:  BCF    1F.3
0029:  MOVLW  07
002A:  MOVWF  1C
....................  
....................    setup_adc_ports(NO_ANALOGS); 
*
002E:  BSF    03.5
002F:  BSF    1F.0
0030:  BSF    1F.1
0031:  BSF    1F.2
0032:  BCF    1F.3
....................    setup_adc(ADC_OFF); 
0033:  BCF    03.5
0034:  BCF    1F.0
....................    setup_spi(FALSE); 
*
002B:  MOVLW  FF
002C:  BCF    03.5
002D:  MOVWF  20
*
0035:  BCF    14.5
0036:  BCF    20.5
0037:  MOVF   20,W
0038:  BSF    03.5
0039:  MOVWF  07
003A:  BCF    03.5
003B:  BSF    20.4
003C:  MOVF   20,W
003D:  BSF    03.5
003E:  MOVWF  07
003F:  BCF    03.5
0040:  BCF    20.3
0041:  MOVF   20,W
0042:  BSF    03.5
0043:  MOVWF  07
0044:  MOVLW  00
0045:  BCF    03.5
0046:  MOVWF  14
0047:  BSF    03.5
0048:  MOVWF  14
....................    setup_timer_0(RTCC_INTERNAL|RTCC_DIV_1); 
0049:  MOVF   01,W
004A:  ANDLW  C7
004B:  IORLW  08
004C:  MOVWF  01
....................    setup_timer_1(T1_DISABLED); 
004D:  BCF    03.5
004E:  CLRF   10
....................    setup_timer_2(T2_DISABLED,0,1); 
004F:  MOVLW  00
0050:  MOVWF  78
0051:  MOVWF  12
0052:  MOVLW  00
0053:  BSF    03.5
0054:  MOVWF  12
....................    setup_comparator(NC_NC_NC_NC); 
0055:  MOVLW  07
0056:  MOVWF  1C
0057:  MOVF   05,W
0058:  MOVLW  10
0059:  MOVWF  77
005A:  DECFSZ 77,F
005B:  GOTO   05A
005C:  NOP
005D:  MOVF   1C,W
005E:  BCF    03.5
005F:  BCF    0D.6
....................    setup_vref(FALSE); 
0060:  BSF    03.5
0061:  CLRF   1D
....................  
....................    // TODO: USER CODE!! 
....................    while (true) 
....................    { 
....................     output_high(pin_a4); 
0062:  BCF    05.4
0063:  BCF    03.5
0064:  BSF    05.4
....................     delay_ms(1000); 
0065:  MOVLW  04
0066:  MOVWF  21
0067:  MOVLW  FA
0068:  MOVWF  22
0069:  CALL   004
006A:  DECFSZ 21,F
006B:  GOTO   067
....................     output_low(pin_a4); 
006C:  BSF    03.5
006D:  BCF    05.4
006E:  BCF    03.5
006F:  BCF    05.4
....................     delay_ms(1000); 
0070:  MOVLW  04
0071:  MOVWF  21
0072:  MOVLW  FA
0073:  MOVWF  22
0074:  CALL   004
0075:  DECFSZ 21,F
0076:  GOTO   072
....................    } 
0077:  BSF    03.5
0078:  GOTO   062
....................  
.................... } 
0079:  SLEEP

Configuration Fuses:
   Word  1: 3F7A   HS NOWDT NOPUT NODEBUG NOPROTECT BROWNOUT NOLVP NOCPD NOWRT
